(lp0
I0
aF0.5
aF0.0021321961620469083
aF0.018691588785046728
aF0.0021321961620469083
aF0.018691588785046728
aI0
aI0
aF0.3333333333333333
aF0.14285714285714285
aF0.12903225806451613
aI0
aF0.0021321961620469083
aF0.36363636363636365
aF1.0
aI0
aF0.3
aI0
aI0
aF0.5
aF0.0021321961620469083
aI0
aI0
aF0.3333333333333333
aI0
aF0.0021321961620469083
aI0
aF0.007462686567164179
aF0.14285714285714285
aI0
aF0.0031645569620253164
aF0.075
aF0.018691588785046728
aF0.023255813953488372
aF0.023255813953488372
aI0
aF0.04065040650406504
aF0.03125
aF0.0031645569620253164
aI0
aI0
aI0
aF0.25
aF0.0021321961620469083
aF0.12903225806451613
aF0.16666666666666666
aF0.2
aI0
aF0.01694915254237288
aF0.36363636363636365
aF0.0021321961620469083
aI0
aF0.0021321961620469083
aF0.4166666666666667
aI0
aF0.5
aF0.0031645569620253164
aI0
aI0
aF0.01639344262295082
aI0
aF0.25
aI0
aF0.36363636363636365
aF0.023809523809523808
aI0
aI0
aF0.6666666666666666
aF0.0021321961620469083
aF0.0021321961620469083
aI0
aF0.2
aF0.018691588785046728
aF0.0021321961620469083
aI0
aF0.045454545454545456
aI0
aF0.3333333333333333
aI0
aF0.03125
aI0
aI0
aF0.010869565217391304
aI0
aF0.0021321961620469083
aF0.25
aI0
aF0.16666666666666666
aF0.12903225806451613
aF0.1
aF0.0021321961620469083
aF0.25
aF0.03076923076923077
aI0
aF0.018691588785046728
aF0.6666666666666666
aF0.0021321961620469083
aF0.05263157894736842
aI0
aF0.16666666666666666
aI0
aI0
aF0.045454545454545456
aF0.1
aF0.25
aF0.0021321961620469083
aF0.1
aI0
aF0.0031645569620253164
aI0
aI0
aI0
aF0.3333333333333333
aI0
aI0
aI0
aI0
aF0.03125
aI0
aF0.045454545454545456
aI0
aF1.0
aF1.0
aF0.12903225806451613
aF0.16666666666666666
aI0
aI0
aF0.018691588785046728
aF0.0021321961620469083
aF0.0021321961620469083
aF0.007462686567164179
aI0
aF0.018691588785046728
aF0.0021321961620469083
aI0
aF0.25
aF0.25
aI0
aF0.1
aF0.0031645569620253164
aI0
aI0
aF0.04065040650406504
aI0
aI0
aF0.0031645569620253164
aF0.03296703296703297
aI0
aI0
aI0
aI0
aI0
aF0.04065040650406504
aF0.42105263157894735
aF0.0021321961620469083
aI0
aI0
aI0
aI0
aI0
aI0
aI0
aI0
aI0
aF0.04065040650406504
aF0.0021321961620469083
aF0.25
aI0
aF0.0021321961620469083
aF0.21428571428571427
aF0.36363636363636365
aI0
aI0
aF0.043478260869565216
aI0
aI0
aF1.0
aI0
aF0.1
aF0.007462686567164179
aF0.36363636363636365
aF0.1
aI0
aI0
aI0
aI0
aF1.0
aF0.5
aF0.04065040650406504
aF0.045454545454545456
aF0.3333333333333333
aF0.023809523809523808
aI0
aI0
aF0.13333333333333333
aF0.21428571428571427
aF0.11764705882352941
aI0
aF0.08333333333333333
aI0
aF0.045454545454545456
aF0.043478260869565216
aF0.045454545454545456
aF0.0958904109589041
aF0.16666666666666666
aI0
aI0
aF0.3333333333333333
aI0
aF0.3333333333333333
aI0
aI0
aF1.0
aI0
aI0
aI0
aF0.01694915254237288
aF0.14285714285714285
aF0.07142857142857142
aI0
aI0
aI0
aI0
aI0
aF1.0
aI0
aI0
aF0.0021321961620469083
aF0.03076923076923077
aF0.023255813953488372
aI0
aF0.08333333333333333
aF0.1111111111111111
aI0
aI0
aI0
aF0.023255813953488372
aF0.05263157894736842
aI0
aF0.0031645569620253164
aI0
aF0.045454545454545456
aI0
aF0.05
aI0
aF0.010869565217391304
aF0.037037037037037035
aF0.36363636363636365
aF0.5
aF0.1
aF0.5263157894736842
aF0.25
aI0
aI0
aF0.0021321961620469083
aI0
aF1.0
aF0.03296703296703297
aF0.0031645569620253164
aF0.0021321961620469083
aF0.018691588785046728
aF0.04065040650406504
aI0
aF0.0021321961620469083
aF0.018691588785046728
aF0.0021321961620469083
aI0
aI0
aI0
aI0
aF0.2857142857142857
aI0
aF0.25
aF0.3333333333333333
aF0.01639344262295082
aI0
aI0
aF0.018691588785046728
aF0.04065040650406504
aF0.0021321961620469083
aF0.3
aF0.0021321961620469083
aI0
aF0.010869565217391304
aF0.02
aI0
aF0.3333333333333333
aI0
aF0.42857142857142855
aF0.0021321961620469083
aF0.25
aF0.2857142857142857
aI0
aF0.25
aI0
aI0
aI0
aI0
aF0.0031645569620253164
aI0
aI0
aI0
aI0
aI0
aI0
aF0.007462686567164179
aF0.9090909090909091
aF0.03125
aI0
aI0
aI0
aI0
aI0
aF0.3
aI0
aF0.01694915254237288
aF0.04065040650406504
aF0.0021321961620469083
aI0
aF0.5
aI0
aF0.1
aF0.5
aI0
aI0
aI0
aF0.023255813953488372
aI0
aF0.0021321961620469083
aF0.125
aI0
aF0.0031645569620253164
aI0
aI0
aF1.0
aI0
aF0.3125
aF0.25
aF0.40625
aF0.018691588785046728
aF0.029850746268656716
aI0
aI0
aI0
aF0.0625
aI0
aF0.3
aF0.05263157894736842
aF0.3125
aF0.03076923076923077
aF0.04878048780487805
aI0
aI0
aF0.16666666666666666
aF0.14285714285714285
aF0.5
aI0
aF0.25
aF0.3
aI0
aF0.03125
aI0
aF0.0021321961620469083
aF0.0031645569620253164
aF0.3333333333333333
aI0
aI0
aI0
aF0.0021321961620469083
aI0
aF0.07142857142857142
aF0.5
aF0.16666666666666666
aI0
aF0.0958904109589041
aF0.21428571428571427
aF0.36363636363636365
aF0.2857142857142857
aF0.5263157894736842
aI0
aF0.42857142857142855
aI0
aF0.023809523809523808
aI0
aF0.0021321961620469083
aF0.03125
aI0
aF0.03076923076923077
aI0
aI0
aF0.0031645569620253164
aI0
aI0
aF0.0021321961620469083
aI0
aF0.5263157894736842
aF0.0021321961620469083
aI0
aI0
aI0
aI0
aI0
aI0
aI0
aF0.023809523809523808
aF0.01694915254237288
aI0
aF0.0625
aI0
aF0.5
aF0.018691588785046728
aI0
aI0
aI0
aF0.3333333333333333
aF0.5
aF0.0021321961620469083
aF0.3333333333333333
aF0.0021321961620469083
aI0
aF0.0958904109589041
aF0.1
aI0
aI0
aI0
aF0.018691588785046728
aI0
aF0.0031645569620253164
aF0.16666666666666666
aI0
aF0.03125
aF0.018691588785046728
aF0.037037037037037035
aF0.05263157894736842
aF0.0021321961620469083
aF0.1111111111111111
aF0.3333333333333333
aI0
aF0.0021321961620469083
aF0.010869565217391304
aI0
aI0
aI0
aF0.05263157894736842
aF1.0
aF0.0031645569620253164
aF0.3333333333333333
aF0.030303030303030304
aI0
aI0
aI0
aI0
aF0.075
aI0
aI0
aF0.01639344262295082
aI0
aI0
aF0.3125
aF0.6666666666666666
aF0.0021321961620469083
aF0.0021321961620469083
aF0.018691588785046728
aF0.5
aF0.0021321961620469083
aF1.0
aF0.40625
aF0.03076923076923077
aI0
aF0.030303030303030304
aI0
aF0.5
aF0.0031645569620253164
aI0
aI0
aF0.5
aI0
aI0
aF0.04065040650406504
aI0
aI0
aI0
aF0.0021321961620469083
aF0.03125
aF0.125
aF0.07407407407407407
aF0.0021321961620469083
aI0
aF0.07407407407407407
aF0.0031645569620253164
aI0
aI0
aI0
aI0
aI0
aI0
aF0.07407407407407407
aF1.0
aF0.0021321961620469083
aI0
aI0
aF0.6666666666666666
aF0.018691588785046728
aF0.0021321961620469083
aF0.0031645569620253164
aF0.0021321961620469083
aI0
aF0.5
aF0.05
aI0
aF0.03296703296703297
aF0.5
aF0.007462686567164179
aF1.0
aF0.36363636363636365
aF0.1
aF0.5
aF0.07142857142857142
aF0.09090909090909091
aF0.03296703296703297
aF0.08333333333333333
aF0.07142857142857142
aF0.0625
aI0
aF0.2857142857142857
aI0
aF0.0031645569620253164
aI0
aF0.0031645569620253164
aI0
aF0.007462686567164179
aF0.36363636363636365
aF0.5
aI0
aI0
aF0.0021321961620469083
aF0.16666666666666666
aF0.0021321961620469083
aF0.01694915254237288
aF0.6666666666666666
aF0.42857142857142855
aI0
aI0
aI0
aF0.1111111111111111
aF0.25
aF0.3333333333333333
aI0
aI0
aI0
aI0
aF0.03125
aF0.05263157894736842
aI0
aI0
aF0.2
aI0
aI0
aF0.2
aF0.03076923076923077
aF0.03076923076923077
aF0.1
aF0.2
aF0.0021321961620469083
aI0
aF0.0021321961620469083
aI0
aI0
aI0
aI0
aF0.42105263157894735
aI0
aF0.01694915254237288
aF0.01694915254237288
aI0
aF0.0031645569620253164
aF0.1111111111111111
aF0.03296703296703297
aF0.045454545454545456
aI0
aF0.01639344262295082
aI0
aI0
aI0
aF0.16666666666666666
aI0
aI0
aF0.02
aF0.0031645569620253164
aF0.1111111111111111
aF0.1111111111111111
aF0.05128205128205128
aF0.36363636363636365
aI0
aI0
aF0.1
aF0.007462686567164179
aI0
aI0
aI0
aI0
aI0
aF0.0021321961620469083
aI0
aI0
aI0
aI0
aF0.03125
aF0.16666666666666666
aF0.6666666666666666
aI0
aF0.02
aF0.0021321961620469083
aF0.01694915254237288
aI0
aF0.0021321961620469083
aI0
aF0.0031645569620253164
aF0.05128205128205128
aF0.2727272727272727
aI0
aI0
aF0.42857142857142855
aF0.16666666666666666
aI0
aI0
aI0
aI0
aI0
aI0
aF0.3125
aI0
aF0.2857142857142857
aI0
aF0.17647058823529413
aF0.0031645569620253164
aF0.5
aI0
aI0
aF0.36363636363636365
aF0.42105263157894735
aI0
aI0
aI0
aI0
aF0.5
aF1.0
aF0.03076923076923077
aI0
aF0.13333333333333333
aF0.018691588785046728
aI0
aF1.0
aI0
aI0
aF0.36363636363636365
aI0
aF0.08333333333333333
aF0.0031645569620253164
aF0.018691588785046728
aF0.03125
aF0.03296703296703297
aF0.12903225806451613
aF0.0021321961620469083
aI0
aI0
aI0
aI0
aF0.075
aI0
aF0.5
aI0
aF1.0
aI0
aF0.3333333333333333
aF0.075
aF0.0958904109589041
aI0
aF0.0021321961620469083
aI0
aF0.0021321961620469083
aI0
aF0.007462686567164179
aF0.007462686567164179
aI0
aF0.5
aI0
aI0
aF0.0021321961620469083
aF0.03125
aI0
aF0.01694915254237288
aI0
aF0.1
aF0.0625
aI0
aF0.007462686567164179
aI0
aF0.0021321961620469083
aI0
aI0
aI0
aI0
aI0
aF0.5
aF0.16666666666666666
aI0
aF0.07407407407407407
aI0
aI0
aI0
aI0
aF0.5
aF0.3333333333333333
aI0
aF0.5
aF0.0958904109589041
aI0
aF0.2
aI0
aF0.01694915254237288
aF0.0021321961620469083
aF0.42105263157894735
aI0
aI0
aI0
aF0.0021321961620469083
aF0.3125
aF0.07407407407407407
aF0.03125
aI0
aF0.01694915254237288
aF0.5
aF0.04065040650406504
aF0.0021321961620469083
aI0
aI0
aF0.0031645569620253164
aI0
aF0.25
aF0.018691588785046728
aF0.3333333333333333
aF0.023809523809523808
aI0
aF0.023809523809523808
aI0
aF0.023809523809523808
aI0
aF0.075
aF0.3333333333333333
aF0.0958904109589041
aF0.018691588785046728
aI0
aF0.40625
aI0
aI0
aF0.09090909090909091
aF0.0021321961620469083
aI0
aF0.36363636363636365
aF0.09090909090909091
aF0.04065040650406504
aF0.3125
aF0.13333333333333333
aI0
aI0
aF0.1
aI0
aF0.42105263157894735
aI0
aI0
aF0.1
aI0
aI0
aF0.029850746268656716
aI0
aF0.40625
aF0.0958904109589041
aI0
aI0
aI0
aF0.5
aI0
aF0.03076923076923077
aI0
aI0
aI0
aF1.0
aF0.3333333333333333
aI0
aI0
aF0.03125
aF0.04065040650406504
aI0
aF0.25
aF0.25
aI0
aI0
aF0.04065040650406504
aF0.0031645569620253164
aI0
aI0
aF0.6666666666666666
aF0.0031645569620253164
aF0.018691588785046728
aF0.0021321961620469083
aI0
aF0.3333333333333333
aF0.045454545454545456
aF0.037037037037037035
aI0
aF0.023255813953488372
aF0.25
aF0.04878048780487805
aI0
aF0.25
aI0
aI0
aF0.16666666666666666
aF0.018691588785046728
aI0
aF0.01639344262295082
aF0.007462686567164179
aF0.0021321961620469083
aF0.1111111111111111
aI0
aI0
aI0
aI0
aF0.5
aI0
aF0.0021321961620469083
aI0
aF0.0021321961620469083
aI0
aF0.0021321961620469083
aF0.0021321961620469083
aI0
aF0.01694915254237288
aI0
aI0
aI0
aI0
aF0.05
aF0.42857142857142855
aI0
aF0.01694915254237288
aF0.05
aI0
aI0
aF0.1111111111111111
aF1.0
aI0
aI0
aF0.0031645569620253164
aF0.03296703296703297
aF0.07692307692307693
aI0
aF0.16666666666666666
aI0
aF0.010869565217391304
aF0.0031645569620253164
aF0.05128205128205128
aF0.05128205128205128
aI0
aF0.5263157894736842
aF0.0021321961620469083
aF0.05
aF0.125
aI0
aF0.03125
aI0
aF0.25
aI0
aF0.03125
aF0.0021321961620469083
aI0
aF0.04065040650406504
aI0
aI0
aI0
aI0
aF0.01694915254237288
aF1.0
aF0.0958904109589041
aF0.03076923076923077
aI0
aF0.5
aI0
aF0.07142857142857142
aI0
aF1.0
aF0.007462686567164179
aI0
aI0
aF0.04065040650406504
aF0.25
aF0.03125
aF0.023809523809523808
aF0.03125
aI0
aF0.0021321961620469083
aI0
aI0
aF0.0031645569620253164
aF0.04878048780487805
aF0.03125
aF0.03076923076923077
aI0
aF0.04065040650406504
aI0
aF0.08333333333333333
a.